; ModuleID = '57/705.c'
source_filename = "57/705.c"
target datalayout = "e-m:e-p270:32:32-p271:32:32-p272:64:64-i64:64-f80:128-n8:16:32:64-S128"
target triple = "x86_64-pc-linux-gnu"

@.str = private unnamed_addr constant [4 x i8] c"%d\00\00", align 1
@.str.1 = private unnamed_addr constant [3 x i8] c"%s\00", align 1
@.str.2 = private unnamed_addr constant [4 x i8] c"%s\0A\00", align 1

; Function Attrs: noinline nounwind uwtable
define dso_local i32 @main() #0 {
  %1 = alloca i32, align 4
  %2 = alloca i32, align 4
  %3 = alloca i32, align 4
  %4 = alloca i32, align 4
  %5 = alloca i32, align 4
  %6 = alloca i32, align 4
  %7 = alloca i32, align 4
  %8 = alloca i32, align 4
  %9 = alloca [50 x [33 x i8]], align 16
  store i32 0, i32* %1, align 4
  %10 = call i32 (i8*, ...) @__isoc99_scanf(i8* getelementptr inbounds ([4 x i8], [4 x i8]* @.str, i64 0, i64 0), i32* %8)
  store i32 0, i32* %5, align 4
  br label %11

11:                                               ; preds = %21, %0
  %12 = load i32, i32* %5, align 4
  %13 = load i32, i32* %8, align 4
  %14 = icmp slt i32 %12, %13
  br i1 %14, label %15, label %24

15:                                               ; preds = %11
  %16 = load i32, i32* %5, align 4
  %17 = sext i32 %16 to i64
  %18 = getelementptr inbounds [50 x [33 x i8]], [50 x [33 x i8]]* %9, i64 0, i64 %17
  %19 = getelementptr inbounds [33 x i8], [33 x i8]* %18, i64 0, i64 0
  %20 = call i32 (i8*, ...) @__isoc99_scanf(i8* getelementptr inbounds ([3 x i8], [3 x i8]* @.str.1, i64 0, i64 0), i8* %19)
  br label %21

21:                                               ; preds = %15
  %22 = load i32, i32* %5, align 4
  %23 = add nsw i32 %22, 1
  store i32 %23, i32* %5, align 4
  br label %11

24:                                               ; preds = %11
  store i32 0, i32* %5, align 4
  br label %25

25:                                               ; preds = %139, %24
  %26 = load i32, i32* %5, align 4
  %27 = load i32, i32* %8, align 4
  %28 = icmp slt i32 %26, %27
  br i1 %28, label %29, label %142

29:                                               ; preds = %25
  %30 = load i32, i32* %5, align 4
  %31 = sext i32 %30 to i64
  %32 = getelementptr inbounds [50 x [33 x i8]], [50 x [33 x i8]]* %9, i64 0, i64 %31
  %33 = getelementptr inbounds [33 x i8], [33 x i8]* %32, i64 0, i64 0
  %34 = call i64 @strlen(i8* %33) #3
  %35 = trunc i64 %34 to i32
  store i32 %35, i32* %7, align 4
  %36 = load i32, i32* %5, align 4
  %37 = sext i32 %36 to i64
  %38 = getelementptr inbounds [50 x [33 x i8]], [50 x [33 x i8]]* %9, i64 0, i64 %37
  %39 = load i32, i32* %7, align 4
  %40 = sub nsw i32 %39, 2
  %41 = sext i32 %40 to i64
  %42 = getelementptr inbounds [33 x i8], [33 x i8]* %38, i64 0, i64 %41
  %43 = load i8, i8* %42, align 1
  %44 = sext i8 %43 to i32
  %45 = icmp eq i32 %44, 108
  br i1 %45, label %46, label %65

46:                                               ; preds = %29
  %47 = load i32, i32* %5, align 4
  %48 = sext i32 %47 to i64
  %49 = getelementptr inbounds [50 x [33 x i8]], [50 x [33 x i8]]* %9, i64 0, i64 %48
  %50 = load i32, i32* %7, align 4
  %51 = sub nsw i32 %50, 1
  %52 = sext i32 %51 to i64
  %53 = getelementptr inbounds [33 x i8], [33 x i8]* %49, i64 0, i64 %52
  %54 = load i8, i8* %53, align 1
  %55 = sext i8 %54 to i32
  %56 = icmp eq i32 %55, 121
  br i1 %56, label %57, label %65

57:                                               ; preds = %46
  %58 = load i32, i32* %5, align 4
  %59 = sext i32 %58 to i64
  %60 = getelementptr inbounds [50 x [33 x i8]], [50 x [33 x i8]]* %9, i64 0, i64 %59
  %61 = load i32, i32* %7, align 4
  %62 = sub nsw i32 %61, 2
  %63 = sext i32 %62 to i64
  %64 = getelementptr inbounds [33 x i8], [33 x i8]* %60, i64 0, i64 %63
  store i8 0, i8* %64, align 1
  br label %138

65:                                               ; preds = %46, %29
  %66 = load i32, i32* %5, align 4
  %67 = sext i32 %66 to i64
  %68 = getelementptr inbounds [50 x [33 x i8]], [50 x [33 x i8]]* %9, i64 0, i64 %67
  %69 = load i32, i32* %7, align 4
  %70 = sub nsw i32 %69, 2
  %71 = sext i32 %70 to i64
  %72 = getelementptr inbounds [33 x i8], [33 x i8]* %68, i64 0, i64 %71
  %73 = load i8, i8* %72, align 1
  %74 = sext i8 %73 to i32
  %75 = icmp eq i32 %74, 101
  br i1 %75, label %76, label %95

76:                                               ; preds = %65
  %77 = load i32, i32* %5, align 4
  %78 = sext i32 %77 to i64
  %79 = getelementptr inbounds [50 x [33 x i8]], [50 x [33 x i8]]* %9, i64 0, i64 %78
  %80 = load i32, i32* %7, align 4
  %81 = sub nsw i32 %80, 1
  %82 = sext i32 %81 to i64
  %83 = getelementptr inbounds [33 x i8], [33 x i8]* %79, i64 0, i64 %82
  %84 = load i8, i8* %83, align 1
  %85 = sext i8 %84 to i32
  %86 = icmp eq i32 %85, 114
  br i1 %86, label %87, label %95

87:                                               ; preds = %76
  %88 = load i32, i32* %5, align 4
  %89 = sext i32 %88 to i64
  %90 = getelementptr inbounds [50 x [33 x i8]], [50 x [33 x i8]]* %9, i64 0, i64 %89
  %91 = load i32, i32* %7, align 4
  %92 = sub nsw i32 %91, 2
  %93 = sext i32 %92 to i64
  %94 = getelementptr inbounds [33 x i8], [33 x i8]* %90, i64 0, i64 %93
  store i8 0, i8* %94, align 1
  br label %137

95:                                               ; preds = %76, %65
  %96 = load i32, i32* %5, align 4
  %97 = sext i32 %96 to i64
  %98 = getelementptr inbounds [50 x [33 x i8]], [50 x [33 x i8]]* %9, i64 0, i64 %97
  %99 = load i32, i32* %7, align 4
  %100 = sub nsw i32 %99, 3
  %101 = sext i32 %100 to i64
  %102 = getelementptr inbounds [33 x i8], [33 x i8]* %98, i64 0, i64 %101
  %103 = load i8, i8* %102, align 1
  %104 = sext i8 %103 to i32
  %105 = icmp eq i32 %104, 105
  br i1 %105, label %106, label %136

106:                                              ; preds = %95
  %107 = load i32, i32* %5, align 4
  %108 = sext i32 %107 to i64
  %109 = getelementptr inbounds [50 x [33 x i8]], [50 x [33 x i8]]* %9, i64 0, i64 %108
  %110 = load i32, i32* %7, align 4
  %111 = sub nsw i32 %110, 2
  %112 = sext i32 %111 to i64
  %113 = getelementptr inbounds [33 x i8], [33 x i8]* %109, i64 0, i64 %112
  %114 = load i8, i8* %113, align 1
  %115 = sext i8 %114 to i32
  %116 = icmp eq i32 %115, 110
  br i1 %116, label %117, label %136

117:                                              ; preds = %106
  %118 = load i32, i32* %5, align 4
  %119 = sext i32 %118 to i64
  %120 = getelementptr inbounds [50 x [33 x i8]], [50 x [33 x i8]]* %9, i64 0, i64 %119
  %121 = load i32, i32* %7, align 4
  %122 = sub nsw i32 %121, 1
  %123 = sext i32 %122 to i64
  %124 = getelementptr inbounds [33 x i8], [33 x i8]* %120, i64 0, i64 %123
  %125 = load i8, i8* %124, align 1
  %126 = sext i8 %125 to i32
  %127 = icmp eq i32 %126, 103
  br i1 %127, label %128, label %136

128:                                              ; preds = %117
  %129 = load i32, i32* %5, align 4
  %130 = sext i32 %129 to i64
  %131 = getelementptr inbounds [50 x [33 x i8]], [50 x [33 x i8]]* %9, i64 0, i64 %130
  %132 = load i32, i32* %7, align 4
  %133 = sub nsw i32 %132, 3
  %134 = sext i32 %133 to i64
  %135 = getelementptr inbounds [33 x i8], [33 x i8]* %131, i64 0, i64 %134
  store i8 0, i8* %135, align 1
  br label %136

136:                                              ; preds = %128, %117, %106, %95
  br label %137

137:                                              ; preds = %136, %87
  br label %138

138:                                              ; preds = %137, %57
  br label %139

139:                                              ; preds = %138
  %140 = load i32, i32* %5, align 4
  %141 = add nsw i32 %140, 1
  store i32 %141, i32* %5, align 4
  br label %25

142:                                              ; preds = %25
  store i32 0, i32* %5, align 4
  br label %143

143:                                              ; preds = %153, %142
  %144 = load i32, i32* %5, align 4
  %145 = load i32, i32* %8, align 4
  %146 = icmp slt i32 %144, %145
  br i1 %146, label %147, label %156

147:                                              ; preds = %143
  %148 = load i32, i32* %5, align 4
  %149 = sext i32 %148 to i64
  %150 = getelementptr inbounds [50 x [33 x i8]], [50 x [33 x i8]]* %9, i64 0, i64 %149
  %151 = getelementptr inbounds [33 x i8], [33 x i8]* %150, i64 0, i64 0
  %152 = call i32 (i8*, ...) @printf(i8* getelementptr inbounds ([4 x i8], [4 x i8]* @.str.2, i64 0, i64 0), i8* %151)
  br label %153

153:                                              ; preds = %147
  %154 = load i32, i32* %5, align 4
  %155 = add nsw i32 %154, 1
  store i32 %155, i32* %5, align 4
  br label %143

156:                                              ; preds = %143
  ret i32 0
}

declare dso_local i32 @__isoc99_scanf(i8*, ...) #1

; Function Attrs: nounwind readonly
declare dso_local i64 @strlen(i8*) #2

declare dso_local i32 @printf(i8*, ...) #1


!llvm.module.flags = !{!0}
!llvm.ident = !{!1}

!0 = !{i32 1, !"wchar_size", i32 4}
!1 = !{!"clang version 10.0.0-4ubuntu1 "}
